target datalayout = "e-m:e-p270:32:32-p271:32:32-p272:64:64-i64:64-i128:128-f80:128-n8:16:32:64-S128"
target triple = "x86_64-pc-linux-gnu"

%struct._timelib_posix_str = type { ptr, i64, ptr, i64, ptr, ptr, i32, i32 }
%struct._timelib_posix_trans_info = type { i32, %union.anon, i32 }
%union.anon = type { %struct.anon.1 }
%struct.anon.1 = type { i32, i32, i32 }
%struct._timelib_tzinfo = type { ptr, %struct.anon, %struct.anon.0, ptr, ptr, ptr, ptr, ptr, i8, %struct._tlocinfo, ptr, ptr }
%struct.anon = type { i32, i32, i32, i32, i32, i32 }
%struct.anon.0 = type { i64, i64, i64, i64, i64, i64 }
%struct._tlocinfo = type { [3 x i8], double, double, ptr }
%struct._timelib_posix_transitions = type { i64, [6 x i64], [6 x i64] }

; Function Attrs: nounwind uwtable
define internal i64 @count_leap_years(i64 noundef %0) #0 {
  %2 = alloca i64, align 8
  store i64 %0, ptr %2, align 8, !tbaa !29
  %3 = load i64, ptr %2, align 8, !tbaa !29
  %4 = add i64 %3, -1
  store i64 %4, ptr %2, align 8, !tbaa !29
  %5 = load i64, ptr %2, align 8, !tbaa !29
  %6 = sdiv i64 %5, 4
  %7 = load i64, ptr %2, align 8, !tbaa !29
  %8 = sdiv i64 %7, 100
  %9 = sub i64 %6, %8
  %10 = load i64, ptr %2, align 8, !tbaa !29
  %11 = sdiv i64 %10, 400
  %12 = add i64 %9, %11
  ret i64 %12
}

; Function Attrs: nounwind uwtable
define hidden i64 @timelib_ts_at_start_of_year(i64 noundef %0) #0 {
  %2 = alloca i64, align 8
  %3 = alloca i64, align 8
  %4 = alloca i64, align 8
  store i64 %0, ptr %2, align 8, !tbaa !29
  call void @llvm.lifetime.start.p0(i64 8, ptr %3) #5
  %5 = call i64 @count_leap_years(i64 noundef 1970)
  store i64 %5, ptr %3, align 8, !tbaa !29
  call void @llvm.lifetime.start.p0(i64 8, ptr %4) #5
  %6 = load i64, ptr %2, align 8, !tbaa !29
  %7 = call i64 @count_leap_years(i64 noundef %6)
  store i64 %7, ptr %4, align 8, !tbaa !29
  %8 = load i64, ptr %2, align 8, !tbaa !29
  %9 = sub i64 %8, 1970
  %10 = mul i64 %9, 365
  %11 = load i64, ptr %4, align 8, !tbaa !29
  %12 = add i64 %10, %11
  %13 = load i64, ptr %3, align 8, !tbaa !29
  %14 = sub i64 %12, %13
  %15 = mul i64 86400, %14
  call void @llvm.lifetime.end.p0(i64 8, ptr %4) #5
  call void @llvm.lifetime.end.p0(i64 8, ptr %3) #5
  ret i64 %15
}

; Function Attrs: nounwind uwtable
define hidden void @timelib_get_transitions_for_year(ptr noundef %0, i64 noundef %1, ptr noundef %2) #0 {
  %4 = alloca ptr, align 8
  %5 = alloca i64, align 8
  %6 = alloca ptr, align 8
  %7 = alloca i64, align 8
  %8 = alloca i64, align 8
  %9 = alloca i64, align 8
  store ptr %0, ptr %4, align 8, !tbaa !30
  store i64 %1, ptr %5, align 8, !tbaa !29
  store ptr %2, ptr %6, align 8, !tbaa !32
  call void @llvm.lifetime.start.p0(i64 8, ptr %7) #5
  call void @llvm.lifetime.start.p0(i64 8, ptr %8) #5
  call void @llvm.lifetime.start.p0(i64 8, ptr %9) #5
  %10 = load i64, ptr %5, align 8, !tbaa !29
  %11 = call i64 @timelib_ts_at_start_of_year(i64 noundef %10)
  store i64 %11, ptr %9, align 8, !tbaa !29
  %12 = load i64, ptr %9, align 8, !tbaa !29
  store i64 %12, ptr %7, align 8, !tbaa !29
  %13 = load ptr, ptr %4, align 8, !tbaa !30
  %14 = getelementptr inbounds nuw %struct._timelib_tzinfo, ptr %13, i32 0, i32 11
  %15 = load ptr, ptr %14, align 8, !tbaa !34
  %16 = getelementptr inbounds nuw %struct._timelib_posix_str, ptr %15, i32 0, i32 4
  %17 = load ptr, ptr %16, align 8, !tbaa !16
  %18 = load i64, ptr %5, align 8, !tbaa !29
  %19 = call i64 @calc_transition(ptr noundef %17, i64 noundef %18)
  %20 = load i64, ptr %7, align 8, !tbaa !29
  %21 = add i64 %20, %19
  store i64 %21, ptr %7, align 8, !tbaa !29
  %22 = load ptr, ptr %4, align 8, !tbaa !30
  %23 = getelementptr inbounds nuw %struct._timelib_tzinfo, ptr %22, i32 0, i32 11
  %24 = load ptr, ptr %23, align 8, !tbaa !34
  %25 = getelementptr inbounds nuw %struct._timelib_posix_str, ptr %24, i32 0, i32 4
  %26 = load ptr, ptr %25, align 8, !tbaa !16
  %27 = getelementptr inbounds nuw %struct._timelib_posix_trans_info, ptr %26, i32 0, i32 2
  %28 = load i32, ptr %27, align 4, !tbaa !28
  %29 = sext i32 %28 to i64
  %30 = load i64, ptr %7, align 8, !tbaa !29
  %31 = add i64 %30, %29
  store i64 %31, ptr %7, align 8, !tbaa !29
  %32 = load ptr, ptr %4, align 8, !tbaa !30
  %33 = getelementptr inbounds nuw %struct._timelib_tzinfo, ptr %32, i32 0, i32 11
  %34 = load ptr, ptr %33, align 8, !tbaa !34
  %35 = getelementptr inbounds nuw %struct._timelib_posix_str, ptr %34, i32 0, i32 1
  %36 = load i64, ptr %35, align 8, !tbaa !20
  %37 = load i64, ptr %7, align 8, !tbaa !29
  %38 = sub i64 %37, %36
  store i64 %38, ptr %7, align 8, !tbaa !29
  %39 = load i64, ptr %9, align 8, !tbaa !29
  store i64 %39, ptr %8, align 8, !tbaa !29
  %40 = load ptr, ptr %4, align 8, !tbaa !30
  %41 = getelementptr inbounds nuw %struct._timelib_tzinfo, ptr %40, i32 0, i32 11
  %42 = load ptr, ptr %41, align 8, !tbaa !34
  %43 = getelementptr inbounds nuw %struct._timelib_posix_str, ptr %42, i32 0, i32 5
  %44 = load ptr, ptr %43, align 8, !tbaa !17
  %45 = load i64, ptr %5, align 8, !tbaa !29
  %46 = call i64 @calc_transition(ptr noundef %44, i64 noundef %45)
  %47 = load i64, ptr %8, align 8, !tbaa !29
  %48 = add i64 %47, %46
  store i64 %48, ptr %8, align 8, !tbaa !29
  %49 = load ptr, ptr %4, align 8, !tbaa !30
  %50 = getelementptr inbounds nuw %struct._timelib_tzinfo, ptr %49, i32 0, i32 11
  %51 = load ptr, ptr %50, align 8, !tbaa !34
  %52 = getelementptr inbounds nuw %struct._timelib_posix_str, ptr %51, i32 0, i32 5
  %53 = load ptr, ptr %52, align 8, !tbaa !17
  %54 = getelementptr inbounds nuw %struct._timelib_posix_trans_info, ptr %53, i32 0, i32 2
  %55 = load i32, ptr %54, align 4, !tbaa !28
  %56 = sext i32 %55 to i64
  %57 = load i64, ptr %8, align 8, !tbaa !29
  %58 = add i64 %57, %56
  store i64 %58, ptr %8, align 8, !tbaa !29
  %59 = load ptr, ptr %4, align 8, !tbaa !30
  %60 = getelementptr inbounds nuw %struct._timelib_tzinfo, ptr %59, i32 0, i32 11
  %61 = load ptr, ptr %60, align 8, !tbaa !34
  %62 = getelementptr inbounds nuw %struct._timelib_posix_str, ptr %61, i32 0, i32 3
  %63 = load i64, ptr %62, align 8, !tbaa !22
  %64 = load i64, ptr %8, align 8, !tbaa !29
  %65 = sub i64 %64, %63
  store i64 %65, ptr %8, align 8, !tbaa !29
  %66 = load i64, ptr %7, align 8, !tbaa !29
  %67 = load i64, ptr %8, align 8, !tbaa !29
  %68 = icmp slt i64 %66, %67
  br i1 %68, label %69, label %110

69:                                               ; preds = %3
  %70 = load i64, ptr %7, align 8, !tbaa !29
  %71 = load ptr, ptr %6, align 8, !tbaa !32
  %72 = getelementptr inbounds nuw %struct._timelib_posix_transitions, ptr %71, i32 0, i32 1
  %73 = load ptr, ptr %6, align 8, !tbaa !32
  %74 = getelementptr inbounds nuw %struct._timelib_posix_transitions, ptr %73, i32 0, i32 0
  %75 = load i64, ptr %74, align 8, !tbaa !44
  %76 = getelementptr inbounds nuw [6 x i64], ptr %72, i64 0, i64 %75
  store i64 %70, ptr %76, align 8, !tbaa !29
  %77 = load i64, ptr %8, align 8, !tbaa !29
  %78 = load ptr, ptr %6, align 8, !tbaa !32
  %79 = getelementptr inbounds nuw %struct._timelib_posix_transitions, ptr %78, i32 0, i32 1
  %80 = load ptr, ptr %6, align 8, !tbaa !32
  %81 = getelementptr inbounds nuw %struct._timelib_posix_transitions, ptr %80, i32 0, i32 0
  %82 = load i64, ptr %81, align 8, !tbaa !44
  %83 = add i64 %82, 1
  %84 = getelementptr inbounds nuw [6 x i64], ptr %79, i64 0, i64 %83
  store i64 %77, ptr %84, align 8, !tbaa !29
  %85 = load ptr, ptr %4, align 8, !tbaa !30
  %86 = getelementptr inbounds nuw %struct._timelib_tzinfo, ptr %85, i32 0, i32 11
  %87 = load ptr, ptr %86, align 8, !tbaa !34
  %88 = getelementptr inbounds nuw %struct._timelib_posix_str, ptr %87, i32 0, i32 7
  %89 = load i32, ptr %88, align 4, !tbaa !46
  %90 = sext i32 %89 to i64
  %91 = load ptr, ptr %6, align 8, !tbaa !32
  %92 = getelementptr inbounds nuw %struct._timelib_posix_transitions, ptr %91, i32 0, i32 2
  %93 = load ptr, ptr %6, align 8, !tbaa !32
  %94 = getelementptr inbounds nuw %struct._timelib_posix_transitions, ptr %93, i32 0, i32 0
  %95 = load i64, ptr %94, align 8, !tbaa !44
  %96 = getelementptr inbounds nuw [6 x i64], ptr %92, i64 0, i64 %95
  store i64 %90, ptr %96, align 8, !tbaa !29
  %97 = load ptr, ptr %4, align 8, !tbaa !30
  %98 = getelementptr inbounds nuw %struct._timelib_tzinfo, ptr %97, i32 0, i32 11
  %99 = load ptr, ptr %98, align 8, !tbaa !34
  %100 = getelementptr inbounds nuw %struct._timelib_posix_str, ptr %99, i32 0, i32 6
  %101 = load i32, ptr %100, align 8, !tbaa !47
  %102 = sext i32 %101 to i64
  %103 = load ptr, ptr %6, align 8, !tbaa !32
  %104 = getelementptr inbounds nuw %struct._timelib_posix_transitions, ptr %103, i32 0, i32 2
  %105 = load ptr, ptr %6, align 8, !tbaa !32
  %106 = getelementptr inbounds nuw %struct._timelib_posix_transitions, ptr %105, i32 0, i32 0
  %107 = load i64, ptr %106, align 8, !tbaa !44
  %108 = add i64 %107, 1
  %109 = getelementptr inbounds nuw [6 x i64], ptr %104, i64 0, i64 %108
  store i64 %102, ptr %109, align 8, !tbaa !29
  br label %151

110:                                              ; preds = %3
  %111 = load i64, ptr %7, align 8, !tbaa !29
  %112 = load ptr, ptr %6, align 8, !tbaa !32
  %113 = getelementptr inbounds nuw %struct._timelib_posix_transitions, ptr %112, i32 0, i32 1
  %114 = load ptr, ptr %6, align 8, !tbaa !32
  %115 = getelementptr inbounds nuw %struct._timelib_posix_transitions, ptr %114, i32 0, i32 0
  %116 = load i64, ptr %115, align 8, !tbaa !44
  %117 = add i64 %116, 1
  %118 = getelementptr inbounds nuw [6 x i64], ptr %113, i64 0, i64 %117
  store i64 %111, ptr %118, align 8, !tbaa !29
  %119 = load i64, ptr %8, align 8, !tbaa !29
  %120 = load ptr, ptr %6, align 8, !tbaa !32
  %121 = getelementptr inbounds nuw %struct._timelib_posix_transitions, ptr %120, i32 0, i32 1
  %122 = load ptr, ptr %6, align 8, !tbaa !32
  %123 = getelementptr inbounds nuw %struct._timelib_posix_transitions, ptr %122, i32 0, i32 0
  %124 = load i64, ptr %123, align 8, !tbaa !44
  %125 = getelementptr inbounds nuw [6 x i64], ptr %121, i64 0, i64 %124
  store i64 %119, ptr %125, align 8, !tbaa !29
  %126 = load ptr, ptr %4, align 8, !tbaa !30
  %127 = getelementptr inbounds nuw %struct._timelib_tzinfo, ptr %126, i32 0, i32 11
  %128 = load ptr, ptr %127, align 8, !tbaa !34
  %129 = getelementptr inbounds nuw %struct._timelib_posix_str, ptr %128, i32 0, i32 7
  %130 = load i32, ptr %129, align 4, !tbaa !46
  %131 = sext i32 %130 to i64
  %132 = load ptr, ptr %6, align 8, !tbaa !32
  %133 = getelementptr inbounds nuw %struct._timelib_posix_transitions, ptr %132, i32 0, i32 2
  %134 = load ptr, ptr %6, align 8, !tbaa !32
  %135 = getelementptr inbounds nuw %struct._timelib_posix_transitions, ptr %134, i32 0, i32 0
  %136 = load i64, ptr %135, align 8, !tbaa !44
  %137 = add i64 %136, 1
  %138 = getelementptr inbounds nuw [6 x i64], ptr %133, i64 0, i64 %137
  store i64 %131, ptr %138, align 8, !tbaa !29
  %139 = load ptr, ptr %4, align 8, !tbaa !30
  %140 = getelementptr inbounds nuw %struct._timelib_tzinfo, ptr %139, i32 0, i32 11
  %141 = load ptr, ptr %140, align 8, !tbaa !34
  %142 = getelementptr inbounds nuw %struct._timelib_posix_str, ptr %141, i32 0, i32 6
  %143 = load i32, ptr %142, align 8, !tbaa !47
  %144 = sext i32 %143 to i64
  %145 = load ptr, ptr %6, align 8, !tbaa !32
  %146 = getelementptr inbounds nuw %struct._timelib_posix_transitions, ptr %145, i32 0, i32 2
  %147 = load ptr, ptr %6, align 8, !tbaa !32
  %148 = getelementptr inbounds nuw %struct._timelib_posix_transitions, ptr %147, i32 0, i32 0
  %149 = load i64, ptr %148, align 8, !tbaa !44
  %150 = getelementptr inbounds nuw [6 x i64], ptr %146, i64 0, i64 %149
  store i64 %144, ptr %150, align 8, !tbaa !29
  br label %151

151:                                              ; preds = %110, %69
  %152 = load ptr, ptr %6, align 8, !tbaa !32
  %153 = getelementptr inbounds nuw %struct._timelib_posix_transitions, ptr %152, i32 0, i32 0
  %154 = load i64, ptr %153, align 8, !tbaa !44
  %155 = add i64 %154, 2
  store i64 %155, ptr %153, align 8, !tbaa !44
  call void @llvm.lifetime.end.p0(i64 8, ptr %9) #5
  call void @llvm.lifetime.end.p0(i64 8, ptr %8) #5
  call void @llvm.lifetime.end.p0(i64 8, ptr %7) #5
  ret void
}