; Function Attrs: nofree norecurse nosync nounwind memory(read, argmem: readwrite, inaccessiblemem: none) uwtable
define hidden void @timelib_get_transitions_for_year(ptr noundef readonly captures(none) %0, i64 noundef %1, ptr noundef captures(none) %2) local_unnamed_addr #4 {
  %4 = add i64 %1, -1
  %5 = sdiv i64 %4, 4
  %.neg.i.i = sdiv i64 %4, -100
  %6 = sdiv i64 %4, 400
  %7 = mul i64 %1, 365
  %8 = add i64 %7, -719050
  %9 = add i64 %8, %5
  %10 = add i64 %9, %.neg.i.i
  %11 = add i64 %10, %6
  %12 = mul i64 %11, 86400
  %13 = add i64 %12, -41212800
  %14 = getelementptr inbounds nuw i8, ptr %0, i64 168
  %15 = load ptr, ptr %14, align 8, !tbaa !23
  %16 = getelementptr inbounds nuw i8, ptr %15, i64 32
  %17 = load ptr, ptr %16, align 8, !tbaa !14
  %18 = tail call fastcc i64 @calc_transition(ptr noundef %17, i64 noundef %1)
  %19 = add i64 %18, %13
  %20 = getelementptr inbounds nuw i8, ptr %17, i64 16
  %21 = load i32, ptr %20, align 4, !tbaa !20
  %22 = sext i32 %21 to i64
  %23 = add i64 %19, %22
  %24 = getelementptr inbounds nuw i8, ptr %15, i64 8
  %25 = load i64, ptr %24, align 8, !tbaa !18
  %26 = sub i64 %23, %25
  %27 = getelementptr inbounds nuw i8, ptr %15, i64 40
  %28 = load ptr, ptr %27, align 8, !tbaa !15
  %29 = tail call fastcc i64 @calc_transition(ptr noundef %28, i64 noundef %1)
  %30 = add i64 %29, %13
  %31 = getelementptr inbounds nuw i8, ptr %28, i64 16
  %32 = load i32, ptr %31, align 4, !tbaa !20
  %33 = sext i32 %32 to i64
  %34 = add i64 %30, %33
  %35 = getelementptr inbounds nuw i8, ptr %15, i64 24
  %36 = load i64, ptr %35, align 8, !tbaa !19
  %37 = sub i64 %34, %36
  %38 = icmp slt i64 %26, %37
  %39 = getelementptr inbounds nuw i8, ptr %2, i64 8
  %40 = load i64, ptr %2, align 8, !tbaa !34
  br i1 %38, label %41, label %44

41:                                               ; preds = %3
  %42 = getelementptr inbounds nuw [6 x i64], ptr %39, i64 0, i64 %40
  store i64 %26, ptr %42, align 8, !tbaa !36
  %43 = add i64 %40, 1
  br label %47

44:                                               ; preds = %3
  %45 = add i64 %40, 1
  %46 = getelementptr inbounds nuw [6 x i64], ptr %39, i64 0, i64 %45
  store i64 %26, ptr %46, align 8, !tbaa !36
  br label %47

47:                                               ; preds = %44, %41
  %.sink52 = phi i64 [ %40, %44 ], [ %43, %41 ]
  %.sink50 = phi i64 [ %45, %44 ], [ %40, %41 ]
  %48 = getelementptr inbounds nuw i8, ptr %15, i64 48
  %49 = getelementptr inbounds nuw i8, ptr %2, i64 56
  %50 = getelementptr inbounds nuw i8, ptr %15, i64 52
  %51 = getelementptr inbounds nuw [6 x i64], ptr %39, i64 0, i64 %.sink52
  store i64 %37, ptr %51, align 8, !tbaa !36
  %52 = load i32, ptr %50, align 4, !tbaa !37
  %53 = sext i32 %52 to i64
  %54 = getelementptr inbounds nuw [6 x i64], ptr %49, i64 0, i64 %.sink50
  store i64 %53, ptr %54, align 8, !tbaa !36
  %55 = load i32, ptr %48, align 8, !tbaa !38
  %56 = sext i32 %55 to i64
  %57 = getelementptr inbounds nuw [6 x i64], ptr %49, i64 0, i64 %.sink52
  store i64 %56, ptr %57, align 8, !tbaa !36
  %58 = add i64 %40, 2
  store i64 %58, ptr %2, align 8, !tbaa !34
  ret void
}